target datalayout = "e-m:e-p270:32:32-p271:32:32-p272:64:64-i64:64-i128:128-f80:128-n8:16:32:64-S128"
target triple = "x86_64-unknown-linux-gnu"

; Function Attrs: mustprogress nounwind uwtable
define noundef zeroext i1 @_ZN5arrow4util5Codec24SupportsCompressionLevelENS_11Compression4typeE(i32 noundef %codec) #0 align 2 {
entry:
  %retval = alloca i1, align 1
  %codec.addr = alloca i32, align 4
  store i32 %codec, ptr %codec.addr, align 4
  %0 = load i32, ptr %codec.addr, align 4
  switch i32 %0, label %sw.default [
    i32 2, label %sw.bb
    i32 3, label %sw.bb
    i32 4, label %sw.bb
    i32 8, label %sw.bb
    i32 6, label %sw.bb
    i32 5, label %sw.bb
  ]

sw.bb:                                            ; preds = %entry, %entry, %entry, %entry, %entry, %entry
  store i1 true, ptr %retval, align 1
  br label %return

sw.default:                                       ; preds = %entry
  store i1 false, ptr %retval, align 1
  br label %return

return:                                           ; preds = %sw.default, %sw.bb
  %1 = load i1, ptr %retval, align 1
  ret i1 %1
}