; Function Attrs: mustprogress nofree norecurse nosync nounwind willreturn memory(none) uwtable
define noundef zeroext i1 @_ZN5arrow4util5Codec24SupportsCompressionLevelENS_11Compression4typeE(i32 noundef %codec) local_unnamed_addr #0 align 2 {
entry:
  %0 = icmp ult i32 %codec, 9
  %switch.cast = trunc i32 %codec to i9
  %switch.downshift = lshr i9 -132, %switch.cast
  %1 = and i9 %switch.downshift, 1
  %switch.masked = icmp ne i9 %1, 0
  %retval.0 = select i1 %0, i1 %switch.masked, i1 false
  ret i1 %retval.0
}